target datalayout = "e-m:e-p270:32:32-p271:32:32-p272:64:64-i64:64-i128:128-f80:128-n8:16:32:64-S128"
target triple = "x86_64-pc-linux-gnu"

; Function Attrs: mustprogress uwtable
define i32 @u_strcmpFold_77(ptr noundef %0, i32 noundef %1, ptr noundef %2, i32 noundef %3, i32 noundef %4, ptr noundef %5) #0 {
  %7 = alloca ptr, align 8
  %8 = alloca i32, align 4
  %9 = alloca ptr, align 8
  %10 = alloca i32, align 4
  %11 = alloca i32, align 4
  %12 = alloca ptr, align 8
  store ptr %0, ptr %7, align 8, !tbaa !10
  store i32 %1, ptr %8, align 4, !tbaa !3
  store ptr %2, ptr %9, align 8, !tbaa !10
  store i32 %3, ptr %10, align 4, !tbaa !3
  store i32 %4, ptr %11, align 4, !tbaa !3
  store ptr %5, ptr %12, align 8, !tbaa !14
  %13 = load ptr, ptr %7, align 8, !tbaa !10
  %14 = load i32, ptr %8, align 4, !tbaa !3
  %15 = load ptr, ptr %9, align 8, !tbaa !10
  %16 = load i32, ptr %10, align 4, !tbaa !3
  %17 = load i32, ptr %11, align 4, !tbaa !3
  %18 = load ptr, ptr %12, align 8, !tbaa !14
  %19 = call noundef i32 @_ZL8_cmpFoldPKDsiS0_ijPiS1_P10UErrorCode(ptr noundef %13, i32 noundef %14, ptr noundef %15, i32 noundef %16, i32 noundef %17, ptr noundef null, ptr noundef null, ptr noundef %18)
  ret i32 %19
}

; Function Attrs: inlinehint mustprogress nounwind uwtable
define internal noundef signext i8 @_ZL9U_FAILURE10UErrorCode(i32 noundef %0) #6 {
  %2 = alloca i32, align 4
  store i32 %0, ptr %2, align 4, !tbaa !30
  %3 = load i32, ptr %2, align 4, !tbaa !30
  %4 = icmp sgt i32 %3, 0
  %5 = zext i1 %4 to i8
  ret i8 %5
}

; Function Attrs: mustprogress uwtable
define i32 @u_strCaseCompare_77(ptr noundef %0, i32 noundef %1, ptr noundef %2, i32 noundef %3, i32 noundef %4, ptr noundef %5) #0 {
  %7 = alloca i32, align 4
  %8 = alloca ptr, align 8
  %9 = alloca i32, align 4
  %10 = alloca ptr, align 8
  %11 = alloca i32, align 4
  %12 = alloca i32, align 4
  %13 = alloca ptr, align 8
  store ptr %0, ptr %8, align 8, !tbaa !10
  store i32 %1, ptr %9, align 4, !tbaa !3
  store ptr %2, ptr %10, align 8, !tbaa !10
  store i32 %3, ptr %11, align 4, !tbaa !3
  store i32 %4, ptr %12, align 4, !tbaa !3
  store ptr %5, ptr %13, align 8, !tbaa !14
  %14 = load ptr, ptr %13, align 8, !tbaa !14
  %15 = icmp eq ptr %14, null
  br i1 %15, label %21, label %16

16:                                               ; preds = %6
  %17 = load ptr, ptr %13, align 8, !tbaa !14
  %18 = load i32, ptr %17, align 4, !tbaa !30
  %19 = call noundef signext i8 @_ZL9U_FAILURE10UErrorCode(i32 noundef %18)
  %20 = icmp ne i8 %19, 0
  br i1 %20, label %21, label %22

21:                                               ; preds = %16, %6
  store i32 0, ptr %7, align 4
  br label %45

22:                                               ; preds = %16
  %23 = load ptr, ptr %8, align 8, !tbaa !10
  %24 = icmp eq ptr %23, null
  br i1 %24, label %34, label %25

25:                                               ; preds = %22
  %26 = load i32, ptr %9, align 4, !tbaa !3
  %27 = icmp slt i32 %26, -1
  br i1 %27, label %34, label %28

28:                                               ; preds = %25
  %29 = load ptr, ptr %10, align 8, !tbaa !10
  %30 = icmp eq ptr %29, null
  br i1 %30, label %34, label %31

31:                                               ; preds = %28
  %32 = load i32, ptr %11, align 4, !tbaa !3
  %33 = icmp slt i32 %32, -1
  br i1 %33, label %34, label %36

34:                                               ; preds = %31, %28, %25, %22
  %35 = load ptr, ptr %13, align 8, !tbaa !14
  store i32 1, ptr %35, align 4, !tbaa !30
  store i32 0, ptr %7, align 4
  br label %45

36:                                               ; preds = %31
  %37 = load ptr, ptr %8, align 8, !tbaa !10
  %38 = load i32, ptr %9, align 4, !tbaa !3
  %39 = load ptr, ptr %10, align 8, !tbaa !10
  %40 = load i32, ptr %11, align 4, !tbaa !3
  %41 = load i32, ptr %12, align 4, !tbaa !3
  %42 = or i32 %41, 65536
  %43 = load ptr, ptr %13, align 8, !tbaa !14
  %44 = call i32 @u_strcmpFold_77(ptr noundef %37, i32 noundef %38, ptr noundef %39, i32 noundef %40, i32 noundef %42, ptr noundef %43)
  store i32 %44, ptr %7, align 4
  br label %45

45:                                               ; preds = %36, %34, %21
  %46 = load i32, ptr %7, align 4
  ret i32 %46
}