; Function Attrs: mustprogress uwtable
define range(i32 -65535, 65536) i32 @u_strCaseCompare_77(ptr noundef %0, i32 noundef %1, ptr noundef %2, i32 noundef %3, i32 noundef %4, ptr noundef %5) local_unnamed_addr #0 {
  %7 = icmp eq ptr %5, null
  br i1 %7, label %20, label %8

8:                                                ; preds = %6
  %9 = load i32, ptr %5, align 4, !tbaa !3
  %10 = icmp slt i32 %9, 1
  br i1 %10, label %11, label %20

11:                                               ; preds = %8
  %12 = icmp eq ptr %0, null
  %13 = icmp slt i32 %1, -1
  %or.cond = or i1 %12, %13
  %14 = icmp eq ptr %2, null
  %or.cond3 = or i1 %or.cond, %14
  %15 = icmp slt i32 %3, -1
  %or.cond5 = or i1 %or.cond3, %15
  br i1 %or.cond5, label %16, label %17

16:                                               ; preds = %11
  store i32 1, ptr %5, align 4, !tbaa !3
  br label %20

17:                                               ; preds = %11
  %18 = or i32 %4, 65536
  %19 = tail call fastcc noundef range(i32 -65535, 65536) i32 @_ZL8_cmpFoldPKDsiS0_ijPiS1_P10UErrorCode(ptr noundef nonnull %0, i32 noundef %1, ptr noundef nonnull %2, i32 noundef %3, i32 noundef %18, ptr noundef null, ptr noundef null, i32 %9)
  br label %20

20:                                               ; preds = %6, %8, %17, %16
  %.0 = phi i32 [ 0, %16 ], [ %19, %17 ], [ 0, %8 ], [ 0, %6 ]
  ret i32 %.0
}